target datalayout = "e-m:e-p270:32:32-p271:32:32-p272:64:64-i64:64-i128:128-f80:128-n8:16:32:64-S128"
target triple = "x86_64-pc-linux-gnu"

; Function Attrs: nounwind uwtable
define dso_local void @_INTERNAL_trim_to_complete_utf8_characters(ptr noundef %0, ptr noundef %1) #0 {
  %3 = alloca ptr, align 8
  %4 = alloca ptr, align 8
  %5 = alloca ptr, align 8
  %6 = alloca i64, align 8
  %7 = alloca i8, align 1
  %8 = alloca i32, align 4
  store ptr %0, ptr %3, align 8, !tbaa !4
  store ptr %1, ptr %4, align 8, !tbaa !9
  call void @llvm.lifetime.start.p0(i64 8, ptr %5) #4
  %9 = load ptr, ptr %4, align 8, !tbaa !9
  %10 = load ptr, ptr %9, align 8, !tbaa !4
  store ptr %10, ptr %5, align 8, !tbaa !4
  call void @llvm.lifetime.start.p0(i64 8, ptr %6) #4
  store i64 0, ptr %6, align 8, !tbaa !11
  br label %11

11:                                               ; preds = %73, %2
  %12 = load ptr, ptr %5, align 8, !tbaa !4
  %13 = load ptr, ptr %3, align 8, !tbaa !4
  %14 = icmp ugt ptr %12, %13
  br i1 %14, label %15, label %78

15:                                               ; preds = %11
  call void @llvm.lifetime.start.p0(i64 1, ptr %7) #4
  %16 = load ptr, ptr %5, align 8, !tbaa !4
  %17 = getelementptr inbounds i8, ptr %16, i64 -1
  %18 = load i8, ptr %17, align 1, !tbaa !13
  store i8 %18, ptr %7, align 1, !tbaa !13
  %19 = load i8, ptr %7, align 1, !tbaa !13
  %20 = zext i8 %19 to i32
  %21 = and i32 %20, 248
  %22 = icmp eq i32 %21, 240
  br i1 %22, label %23, label %32

23:                                               ; preds = %15
  %24 = load i64, ptr %6, align 8, !tbaa !11
  %25 = add i64 %24, 1
  %26 = icmp uge i64 %25, 4
  br i1 %26, label %27, label %30

27:                                               ; preds = %23
  %28 = load ptr, ptr %5, align 8, !tbaa !4
  %29 = getelementptr inbounds i8, ptr %28, i64 3
  store ptr %29, ptr %5, align 8, !tbaa !4
  store i32 2, ptr %8, align 4
  br label %70

30:                                               ; preds = %23
  store i64 0, ptr %6, align 8, !tbaa !11
  br label %31

31:                                               ; preds = %30
  br label %69

32:                                               ; preds = %15
  %33 = load i8, ptr %7, align 1, !tbaa !13
  %34 = zext i8 %33 to i32
  %35 = and i32 %34, 240
  %36 = icmp eq i32 %35, 224
  br i1 %36, label %37, label %46

37:                                               ; preds = %32
  %38 = load i64, ptr %6, align 8, !tbaa !11
  %39 = add i64 %38, 1
  %40 = icmp uge i64 %39, 3
  br i1 %40, label %41, label %44

41:                                               ; preds = %37
  %42 = load ptr, ptr %5, align 8, !tbaa !4
  %43 = getelementptr inbounds i8, ptr %42, i64 2
  store ptr %43, ptr %5, align 8, !tbaa !4
  store i32 2, ptr %8, align 4
  br label %70

44:                                               ; preds = %37
  store i64 0, ptr %6, align 8, !tbaa !11
  br label %45

45:                                               ; preds = %44
  br label %68

46:                                               ; preds = %32
  %47 = load i8, ptr %7, align 1, !tbaa !13
  %48 = zext i8 %47 to i32
  %49 = and i32 %48, 224
  %50 = icmp eq i32 %49, 192
  br i1 %50, label %51, label %60

51:                                               ; preds = %46
  %52 = load i64, ptr %6, align 8, !tbaa !11
  %53 = add i64 %52, 1
  %54 = icmp uge i64 %53, 2
  br i1 %54, label %55, label %58

55:                                               ; preds = %51
  %56 = load ptr, ptr %5, align 8, !tbaa !4
  %57 = getelementptr inbounds i8, ptr %56, i64 1
  store ptr %57, ptr %5, align 8, !tbaa !4
  store i32 2, ptr %8, align 4
  br label %70

58:                                               ; preds = %51
  store i64 0, ptr %6, align 8, !tbaa !11
  br label %59

59:                                               ; preds = %58
  br label %67

60:                                               ; preds = %46
  %61 = load i8, ptr %7, align 1, !tbaa !13
  %62 = zext i8 %61 to i32
  %63 = and i32 %62, 128
  %64 = icmp eq i32 %63, 0
  br i1 %64, label %65, label %66

65:                                               ; preds = %60
  store i32 2, ptr %8, align 4
  br label %70

66:                                               ; preds = %60
  br label %67

67:                                               ; preds = %66, %59
  br label %68

68:                                               ; preds = %67, %45
  br label %69

69:                                               ; preds = %68, %31
  store i32 0, ptr %8, align 4
  br label %70

70:                                               ; preds = %69, %65, %55, %41, %27
  call void @llvm.lifetime.end.p0(i64 1, ptr %7) #4
  %71 = load i32, ptr %8, align 4
  switch i32 %71, label %81 [
    i32 0, label %72
    i32 2, label %78
  ]

72:                                               ; preds = %70
  br label %73

73:                                               ; preds = %72
  %74 = load ptr, ptr %5, align 8, !tbaa !4
  %75 = getelementptr inbounds i8, ptr %74, i32 -1
  store ptr %75, ptr %5, align 8, !tbaa !4
  %76 = load i64, ptr %6, align 8, !tbaa !11
  %77 = add i64 %76, 1
  store i64 %77, ptr %6, align 8, !tbaa !11
  br label %11, !llvm.loop !14

78:                                               ; preds = %70, %11
  %79 = load ptr, ptr %5, align 8, !tbaa !4
  %80 = load ptr, ptr %4, align 8, !tbaa !9
  store ptr %79, ptr %80, align 8, !tbaa !4
  call void @llvm.lifetime.end.p0(i64 8, ptr %6) #4
  call void @llvm.lifetime.end.p0(i64 8, ptr %5) #4
  ret void

81:                                               ; preds = %70
  unreachable
}