; Function Attrs: nofree norecurse nosync nounwind memory(read, argmem: readwrite, inaccessiblemem: none) uwtable
define dso_local void @_INTERNAL_trim_to_complete_utf8_characters(ptr noundef readnone %0, ptr noundef captures(none) %1) local_unnamed_addr #0 {
  %3 = load ptr, ptr %1, align 8, !tbaa !4
  %4 = icmp ugt ptr %3, %0
  br i1 %4, label %.lr.ph.preheader, label %select.unfold

.lr.ph.preheader:                                 ; preds = %2
  %5 = ptrtoint ptr %3 to i64
  %6 = ptrtoint ptr %0 to i64
  %7 = sub i64 %6, %5
  %scevgep = getelementptr i8, ptr %3, i64 %7
  br label %.lr.ph

.lr.ph:                                           ; preds = %.lr.ph.preheader, %36
  %.01832 = phi ptr [ %8, %36 ], [ %3, %.lr.ph.preheader ]
  %.01931 = phi i64 [ %37, %36 ], [ 0, %.lr.ph.preheader ]
  %8 = getelementptr inbounds i8, ptr %.01832, i64 -1
  %9 = load i8, ptr %8, align 1, !tbaa !9
  %10 = zext i8 %9 to i32
  %11 = and i32 %10, 248
  %12 = icmp eq i32 %11, 240
  br i1 %12, label %13, label %18

13:                                               ; preds = %.lr.ph
  %14 = add i64 %.01931, -3
  %15 = icmp ult i64 %14, -4
  br i1 %15, label %16, label %36

16:                                               ; preds = %13
  %17 = getelementptr inbounds nuw i8, ptr %.01832, i64 3
  br label %select.unfold

18:                                               ; preds = %.lr.ph
  %19 = and i32 %10, 240
  %20 = icmp eq i32 %19, 224
  br i1 %20, label %21, label %26

21:                                               ; preds = %18
  %22 = add i64 %.01931, -2
  %23 = icmp ult i64 %22, -3
  br i1 %23, label %24, label %36

24:                                               ; preds = %21
  %25 = getelementptr inbounds nuw i8, ptr %.01832, i64 2
  br label %select.unfold

26:                                               ; preds = %18
  %27 = and i32 %10, 224
  %28 = icmp eq i32 %27, 192
  br i1 %28, label %29, label %34

29:                                               ; preds = %26
  %30 = add i64 %.01931, -1
  %31 = icmp ult i64 %30, -2
  br i1 %31, label %32, label %36

32:                                               ; preds = %29
  %33 = getelementptr inbounds nuw i8, ptr %.01832, i64 1
  br label %select.unfold

34:                                               ; preds = %26
  %35 = icmp sgt i8 %9, -1
  br i1 %35, label %select.unfold, label %36

36:                                               ; preds = %29, %21, %13, %34
  %.120.ph = phi i64 [ %.01931, %34 ], [ 0, %29 ], [ 0, %21 ], [ 0, %13 ]
  %37 = add i64 %.120.ph, 1
  %38 = icmp ugt ptr %8, %0
  br i1 %38, label %.lr.ph, label %select.unfold, !llvm.loop !10

select.unfold:                                    ; preds = %36, %34, %2, %16, %24, %32
  %.1 = phi ptr [ %17, %16 ], [ %25, %24 ], [ %33, %32 ], [ %3, %2 ], [ %scevgep, %36 ], [ %.01832, %34 ]
  store ptr %.1, ptr %1, align 8, !tbaa !4
  ret void
}